; Function Attrs: mustprogress nofree norecurse nosync nounwind willreturn memory(none) uwtable
define range(i32 9, 14) i32 @ff_wma_total_gain_to_bits(i32 noundef %0) local_unnamed_addr #3 {
  %2 = icmp slt i32 %0, 15
  br i1 %2, label %9, label %3

3:                                                ; preds = %1
  %4 = icmp samesign ult i32 %0, 32
  br i1 %4, label %9, label %5

5:                                                ; preds = %3
  %6 = icmp samesign ult i32 %0, 40
  br i1 %6, label %9, label %7

7:                                                ; preds = %5
  %8 = icmp samesign ult i32 %0, 45
  %. = select i1 %8, i32 10, i32 9
  br label %9

9:                                                ; preds = %7, %5, %3, %1
  %.0 = phi i32 [ 13, %1 ], [ 12, %3 ], [ 11, %5 ], [ %., %7 ]
  ret i32 %.0
}